; Function Attrs: mustprogress uwtable
define void @_ZN8proxygen11HTTPMessage14setHTTPVersionEhh(ptr noundef nonnull align 8 dereferenceable(616) %this, i8 noundef zeroext %maj, i8 noundef zeroext %min) local_unnamed_addr #2 align 2 {
entry:
  %maj.addr = alloca i8, align 1
  %min.addr = alloca i8, align 1
  %ref.tmp = alloca %"class.std::__cxx11::basic_string", align 8
  %ref.tmp9 = alloca i8, align 1
  store i8 %maj, ptr %maj.addr, align 1
  store i8 %min, ptr %min.addr, align 1
  %version_ = getelementptr inbounds i8, ptr %this, i64 608
  store i8 %maj, ptr %version_, align 8
  %second = getelementptr inbounds i8, ptr %this, i64 609
  store i8 %min, ptr %second, align 1
  %cmp = icmp ugt i8 %maj, 9
  %cmp8 = icmp ugt i8 %min, 9
  %or.cond = or i1 %cmp, %cmp8
  br i1 %or.cond, label %if.then, label %if.else

if.then:                                          ; preds = %entry
  store i8 46, ptr %ref.tmp9, align 1
  call void @_ZN5folly2toINSt7__cxx1112basic_stringIcSt11char_traitsIcESaIcEEEJhchEEENSt9enable_ifIXaasr12IsSomeStringIT_EE5valueoonesZT0_Li1Entsr3std7is_sameIS8_19__type_pack_elementIXmisPvDpT0_ELi1EEJvSB_EEEE5valueES8_E4typeEDpRKSA_(ptr nonnull sret(%"class.std::__cxx11::basic_string") align 8 %ref.tmp, ptr noundef nonnull align 1 dereferenceable(1) %maj.addr, ptr noundef nonnull align 1 dereferenceable(1) %ref.tmp9, ptr noundef nonnull align 1 dereferenceable(1) %min.addr)
  %versionStr_ = getelementptr inbounds i8, ptr %this, i64 136
  %call = call noundef nonnull align 8 dereferenceable(32) ptr @_ZNSt7__cxx1112basic_stringIcSt11char_traitsIcESaIcEEaSEOS4_(ptr noundef nonnull align 8 dereferenceable(32) %versionStr_, ptr noundef nonnull align 8 dereferenceable(32) %ref.tmp) #23
  call void @_ZNSt7__cxx1112basic_stringIcSt11char_traitsIcESaIcEED1Ev(ptr noundef nonnull align 8 dereferenceable(32) %ref.tmp) #23
  br label %if.end

if.else:                                          ; preds = %entry
  %versionStr_10 = getelementptr inbounds i8, ptr %this, i64 136
  tail call void @_ZNSt7__cxx1112basic_stringIcSt11char_traitsIcESaIcEE7reserveEm(ptr noundef nonnull align 8 dereferenceable(32) %versionStr_10, i64 noundef 3)
  tail call void @_ZNSt7__cxx1112basic_stringIcSt11char_traitsIcESaIcEE5clearEv(ptr noundef nonnull align 8 dereferenceable(32) %versionStr_10) #23
  %add = or disjoint i8 %maj, 48
  %call15 = tail call noundef nonnull align 8 dereferenceable(32) ptr @_ZNSt7__cxx1112basic_stringIcSt11char_traitsIcESaIcEE6appendEmc(ptr noundef nonnull align 8 dereferenceable(32) %versionStr_10, i64 noundef 1, i8 noundef signext %add)
  %call17 = tail call noundef nonnull align 8 dereferenceable(32) ptr @_ZNSt7__cxx1112basic_stringIcSt11char_traitsIcESaIcEE6appendEmc(ptr noundef nonnull align 8 dereferenceable(32) %versionStr_10, i64 noundef 1, i8 noundef signext 46)
  %add20 = or disjoint i8 %min, 48
  %call22 = tail call noundef nonnull align 8 dereferenceable(32) ptr @_ZNSt7__cxx1112basic_stringIcSt11char_traitsIcESaIcEE6appendEmc(ptr noundef nonnull align 8 dereferenceable(32) %versionStr_10, i64 noundef 1, i8 noundef signext %add20)
  br label %if.end

if.end:                                           ; preds = %if.else, %if.then
  ret void
}